---
triple:          'arm64-apple-darwin'
binary-path:     a.out
relocations:
  - { offsetInCU: 0x43D9, offset: 0x43D9, size: 0x8, addend: 0x0, symName: __ZNSt3__124__put_character_sequenceB8ue170006IcNS_11char_traitsIcEEEERNS_13basic_ostreamIT_T0_EES7_PKS4_m, symObjAddr: 0x2334, symBinAddr: 0x100002E54, symSize: 0x1EC }
  - { offsetInCU: 0x5F67, offset: 0x5F67, size: 0x8, addend: 0x0, symName: __ZNSt3__1neB8ue170006IPjEEbRKNS_11__wrap_iterIT_EES6_, symObjAddr: 0x1E8, symBinAddr: 0x100000D08, symSize: 0x34 }
  - { offsetInCU: 0x5FAA, offset: 0x5FAA, size: 0x8, addend: 0x0, symName: __ZNSt3__1lsB8ue170006INS_11char_traitsIcEEEERNS_13basic_ostreamIcT_EES6_PKc, symObjAddr: 0x424, symBinAddr: 0x100000F44, symSize: 0x48 }
  - { offsetInCU: 0x5FF0, offset: 0x5FF0, size: 0x8, addend: 0x0, symName: __ZNSt3__14endlB8ue170006IcNS_11char_traitsIcEEEERNS_13basic_ostreamIT_T0_EES7_, symObjAddr: 0x498, symBinAddr: 0x100000FB8, symSize: 0x58 }
  - { offsetInCU: 0x6030, offset: 0x6030, size: 0x8, addend: 0x0, symName: __ZNSt3__13hexB8ue170006ERNS_8ios_baseE, symObjAddr: 0x714, symBinAddr: 0x100001234, symSize: 0x30 }
  - { offsetInCU: 0x605E, offset: 0x605E, size: 0x8, addend: 0x0, symName: __ZNSt3__1eqB8ue170006IPjEEbRKNS_11__wrap_iterIT_EES6_, symObjAddr: 0x938, symBinAddr: 0x100001458, symSize: 0x48 }
  - { offsetInCU: 0x60A1, offset: 0x60A1, size: 0x8, addend: 0x0, symName: __ZNSt3__122__make_exception_guardB8ue170006INS_6vectorIjNS_9allocatorIjEEE16__destroy_vectorEEENS_28__exception_guard_exceptionsIT_EES7_, symObjAddr: 0xBFC, symBinAddr: 0x10000171C, symSize: 0x40 }
  - { offsetInCU: 0x60D6, offset: 0x60D6, size: 0x8, addend: 0x0, symName: __ZNSt3__119__allocate_at_leastB8ue170006INS_9allocatorIjEEEENS_19__allocation_resultINS_16allocator_traitsIT_E7pointerEEERS5_m, symObjAddr: 0xFFC, symBinAddr: 0x100001B1C, symSize: 0x40 }
  - { offsetInCU: 0x6119, offset: 0x6119, size: 0x8, addend: 0x0, symName: __ZNSt3__13minB8ue170006ImEERKT_S3_S3_, symObjAddr: 0x1138, symBinAddr: 0x100001C58, symSize: 0x2C }
  - { offsetInCU: 0x6346, offset: 0x6346, size: 0x8, addend: 0x0, symName: __ZNSt3__13minB8ue170006ImNS_6__lessIvvEEEERKT_S5_S5_T0_, symObjAddr: 0x11D0, symBinAddr: 0x100001CF0, symSize: 0x54 }
  - { offsetInCU: 0x63E5, offset: 0x63E5, size: 0x8, addend: 0x0, symName: __ZNSt3__120__throw_length_errorB8ue170006EPKc, symObjAddr: 0x12AC, symBinAddr: 0x100001DCC, symSize: 0x64 }
  - { offsetInCU: 0x640F, offset: 0x640F, size: 0x8, addend: 0x0, symName: __ZNSt3__117__libcpp_allocateB8ue170006Emm, symObjAddr: 0x141C, symBinAddr: 0x100001F3C, symSize: 0x60 }
  - { offsetInCU: 0x6469, offset: 0x6469, size: 0x8, addend: 0x0, symName: __ZNSt3__124__is_overaligned_for_newB8ue170006Em, symObjAddr: 0x147C, symBinAddr: 0x100001F9C, symSize: 0x20 }
  - { offsetInCU: 0x6497, offset: 0x6497, size: 0x8, addend: 0x0, symName: __ZNSt3__121__libcpp_operator_newB8ue170006IJmSt11align_val_tEEEPvDpT_, symObjAddr: 0x149C, symBinAddr: 0x100001FBC, symSize: 0x2C }
  - { offsetInCU: 0x64E4, offset: 0x64E4, size: 0x8, addend: 0x0, symName: __ZNSt3__121__libcpp_operator_newB8ue170006IJmEEEPvDpT_, symObjAddr: 0x14C8, symBinAddr: 0x100001FE8, symSize: 0x24 }
  - { offsetInCU: 0x651D, offset: 0x651D, size: 0x8, addend: 0x0, symName: __ZNSt3__112__to_addressB8ue170006IjEEPT_S2_, symObjAddr: 0x15E4, symBinAddr: 0x100002104, symSize: 0x14 }
  - { offsetInCU: 0x6552, offset: 0x6552, size: 0x8, addend: 0x0, symName: __ZNSt3__130__uninitialized_allocator_copyB8ue170006INS_9allocatorIjEEPKjS4_PjEET2_RT_T0_T1_S6_, symObjAddr: 0x1694, symBinAddr: 0x1000021B4, symSize: 0x80 }
  - { offsetInCU: 0x65EF, offset: 0x65EF, size: 0x8, addend: 0x0, symName: __ZNSt3__114__unwrap_rangeB8ue170006IPKjS2_EENS_4pairIT0_S4_EET_S6_, symObjAddr: 0x1784, symBinAddr: 0x1000022A4, symSize: 0x60 }
  - { offsetInCU: 0x663B, offset: 0x663B, size: 0x8, addend: 0x0, symName: __ZNSt3__135__uninitialized_allocator_copy_implB8ue170006INS_9allocatorIjEEKjjjLPv0EEEPT2_RT_PT0_SA_S6_, symObjAddr: 0x17E4, symBinAddr: 0x100002304, symSize: 0x38 }
  - { offsetInCU: 0x66BC, offset: 0x66BC, size: 0x8, addend: 0x0, symName: __ZNSt3__113__unwrap_iterB8ue170006IPjNS_18__unwrap_iter_implIS1_Lb1EEELi0EEEDTclsrT0_8__unwrapclsr3stdE7declvalIT_EEEES5_, symObjAddr: 0x181C, symBinAddr: 0x10000233C, symSize: 0x24 }
  - { offsetInCU: 0x6700, offset: 0x6700, size: 0x8, addend: 0x0, symName: __ZNSt3__113__rewrap_iterB8ue170006IPjS1_NS_18__unwrap_iter_implIS1_Lb1EEEEET_S4_T0_, symObjAddr: 0x1840, symBinAddr: 0x100002360, symSize: 0x3C }
  - { offsetInCU: 0x6755, offset: 0x6755, size: 0x8, addend: 0x0, symName: __ZNSt3__19make_pairB8ue170006IPKjS2_EENS_4pairINS_18__unwrap_ref_decayIT_E4typeENS4_IT0_E4typeEEEOS5_OS8_, symObjAddr: 0x187C, symBinAddr: 0x10000239C, symSize: 0x38 }
  - { offsetInCU: 0x67A4, offset: 0x67A4, size: 0x8, addend: 0x0, symName: __ZNSt3__113__unwrap_iterB8ue170006IPKjNS_18__unwrap_iter_implIS2_Lb1EEELi0EEEDTclsrT0_8__unwrapclsr3stdE7declvalIT_EEEES6_, symObjAddr: 0x18B4, symBinAddr: 0x1000023D4, symSize: 0x24 }
  - { offsetInCU: 0x690F, offset: 0x690F, size: 0x8, addend: 0x0, symName: __ZNSt3__112__to_addressB8ue170006IKjEEPT_S3_, symObjAddr: 0x196C, symBinAddr: 0x10000248C, symSize: 0x14 }
  - { offsetInCU: 0x6944, offset: 0x6944, size: 0x8, addend: 0x0, symName: __ZNSt3__14copyB8ue170006IPKjPjEET0_T_S5_S4_, symObjAddr: 0x1980, symBinAddr: 0x1000024A0, symSize: 0x40 }
  - { offsetInCU: 0x699E, offset: 0x699E, size: 0x8, addend: 0x0, symName: __ZNSt3__16__copyB8ue170006INS_17_ClassicAlgPolicyEPKjS3_PjEENS_4pairIT0_T2_EES6_T1_S7_, symObjAddr: 0x19C0, symBinAddr: 0x1000024E0, symSize: 0x44 }
  - { offsetInCU: 0x6A0A, offset: 0x6A0A, size: 0x8, addend: 0x0, symName: __ZNSt3__123__dispatch_copy_or_moveB8ue170006INS_17_ClassicAlgPolicyENS_11__copy_loopIS1_EENS_14__copy_trivialEPKjS6_PjEENS_4pairIT2_T4_EES9_T3_SA_, symObjAddr: 0x1A04, symBinAddr: 0x100002524, symSize: 0x44 }
  - { offsetInCU: 0x6A88, offset: 0x6A88, size: 0x8, addend: 0x0, symName: __ZNSt3__121__unwrap_and_dispatchB8ue170006INS_10__overloadINS_11__copy_loopINS_17_ClassicAlgPolicyEEENS_14__copy_trivialEEEPKjS8_PjLi0EEENS_4pairIT0_T2_EESB_T1_SC_, symObjAddr: 0x1A48, symBinAddr: 0x100002568, symSize: 0xB4 }
  - { offsetInCU: 0x6C5F, offset: 0x6C5F, size: 0x8, addend: 0x0, symName: __ZNSt3__19make_pairB8ue170006IPKjPjEENS_4pairINS_18__unwrap_ref_decayIT_E4typeENS5_IT0_E4typeEEEOS6_OS9_, symObjAddr: 0x1B44, symBinAddr: 0x100002664, symSize: 0x38 }
  - { offsetInCU: 0x6CAE, offset: 0x6CAE, size: 0x8, addend: 0x0, symName: __ZNSt3__114__rewrap_rangeB8ue170006IPKjS2_EET_S3_T0_, symObjAddr: 0x1B7C, symBinAddr: 0x10000269C, symSize: 0x2C }
  - { offsetInCU: 0x6CFA, offset: 0x6CFA, size: 0x8, addend: 0x0, symName: __ZNSt3__119__copy_trivial_implB8ue170006IKjjEENS_4pairIPT_PT0_EES4_S4_S6_, symObjAddr: 0x1BA8, symBinAddr: 0x1000026C8, symSize: 0x80 }
  - { offsetInCU: 0x6D62, offset: 0x6D62, size: 0x8, addend: 0x0, symName: __ZNSt3__119__constexpr_memmoveB8ue170006IjKjLi0EEEPT_S3_PT0_NS_15__element_countE, symObjAddr: 0x1C28, symBinAddr: 0x100002748, symSize: 0x64 }
  - { offsetInCU: 0x6DD0, offset: 0x6DD0, size: 0x8, addend: 0x0, symName: __ZNSt3__19make_pairB8ue170006IRPKjPjEENS_4pairINS_18__unwrap_ref_decayIT_E4typeENS6_IT0_E4typeEEEOS7_OSA_, symObjAddr: 0x1C8C, symBinAddr: 0x1000027AC, symSize: 0x38 }
  - { offsetInCU: 0x6E1F, offset: 0x6E1F, size: 0x8, addend: 0x0, symName: __ZNSt3__113__rewrap_iterB8ue170006IPKjS2_NS_18__unwrap_iter_implIS2_Lb1EEEEET_S5_T0_, symObjAddr: 0x1DA4, symBinAddr: 0x1000028C4, symSize: 0x3C }
  - { offsetInCU: 0x6EC7, offset: 0x6EC7, size: 0x8, addend: 0x0, symName: __ZNSt3__119__libcpp_deallocateB8ue170006EPvmm, symObjAddr: 0x21EC, symBinAddr: 0x100002D0C, symSize: 0x60 }
  - { offsetInCU: 0x6F2C, offset: 0x6F2C, size: 0x8, addend: 0x0, symName: __ZNSt3__127__do_deallocate_handle_sizeB8ue170006IJSt11align_val_tEEEvPvmDpT_, symObjAddr: 0x224C, symBinAddr: 0x100002D6C, symSize: 0x30 }
  - { offsetInCU: 0x6F7F, offset: 0x6F7F, size: 0x8, addend: 0x0, symName: __ZNSt3__127__do_deallocate_handle_sizeB8ue170006IJEEEvPvmDpT_, symObjAddr: 0x227C, symBinAddr: 0x100002D9C, symSize: 0x28 }
  - { offsetInCU: 0x6FBD, offset: 0x6FBD, size: 0x8, addend: 0x0, symName: __ZNSt3__124__libcpp_operator_deleteB8ue170006IJPvSt11align_val_tEEEvDpT_, symObjAddr: 0x22A4, symBinAddr: 0x100002DC4, symSize: 0x2C }
  - { offsetInCU: 0x7006, offset: 0x7006, size: 0x8, addend: 0x0, symName: __ZNSt3__124__libcpp_operator_deleteB8ue170006IJPvEEEvDpT_, symObjAddr: 0x22D0, symBinAddr: 0x100002DF0, symSize: 0x24 }
  - { offsetInCU: 0x703B, offset: 0x703B, size: 0x8, addend: 0x0, symName: __ZNSt3__116__pad_and_outputB8ue170006IcNS_11char_traitsIcEEEENS_19ostreambuf_iteratorIT_T0_EES6_PKS4_S8_S8_RNS_8ios_baseES4_, symObjAddr: 0x2570, symBinAddr: 0x100003090, symSize: 0x240 }
  - { offsetInCU: 0x710A, offset: 0x710A, size: 0x8, addend: 0x0, symName: __ZNSt3__112__to_addressB8ue170006IcEEPT_S2_, symObjAddr: 0x2AD8, symBinAddr: 0x1000035F8, symSize: 0x14 }
  - { offsetInCU: 0x7172, offset: 0x7172, size: 0x8, addend: 0x0, symName: __ZNSt3__19use_facetB8ue170006INS_5ctypeIcEEEERKT_RKNS_6localeE, symObjAddr: 0x2D90, symBinAddr: 0x1000038B0, symSize: 0x2C }
  - { offsetInCU: 0x763F, offset: 0x763F, size: 0x8, addend: 0x0, symName: __ZNSt3__118__constexpr_strlenB8ue170006EPKc, symObjAddr: 0x2E28, symBinAddr: 0x100003948, symSize: 0x24 }
  - { offsetInCU: 0x7985, offset: 0x7985, size: 0x8, addend: 0x0, symName: __ZSt28__throw_bad_array_new_lengthB8ue170006v, symObjAddr: 0x13E8, symBinAddr: 0x100001F08, symSize: 0x34 }
  - { offsetInCU: 0xA1F1, offset: 0xA1F1, size: 0x8, addend: 0x0, symName: __Z3lcmRNSt3__16vectorIjNS_9allocatorIjEEEEj, symObjAddr: 0x0, symBinAddr: 0x100000B20, symSize: 0x188 }
  - { offsetInCU: 0xA341, offset: 0xA341, size: 0x8, addend: 0x0, symName: __ZNSt3__16vectorIjNS_9allocatorIjEEE5beginB8ue170006Ev, symObjAddr: 0x188, symBinAddr: 0x100000CA8, symSize: 0x30 }
  - { offsetInCU: 0xA369, offset: 0xA369, size: 0x8, addend: 0x0, symName: __ZNSt3__16vectorIjNS_9allocatorIjEEE3endB8ue170006Ev, symObjAddr: 0x1B8, symBinAddr: 0x100000CD8, symSize: 0x30 }
  - { offsetInCU: 0xA391, offset: 0xA391, size: 0x8, addend: 0x0, symName: __ZNKSt3__111__wrap_iterIPjEdeB8ue170006Ev, symObjAddr: 0x21C, symBinAddr: 0x100000D3C, symSize: 0x18 }
  - { offsetInCU: 0xA3B7, offset: 0xA3B7, size: 0x8, addend: 0x0, symName: __ZNSt3__111__wrap_iterIPjEppB8ue170006Ev, symObjAddr: 0x234, symBinAddr: 0x100000D54, symSize: 0x20 }
  - { offsetInCU: 0xA3DD, offset: 0xA3DD, size: 0x8, addend: 0x0, symName: __Z22testNoMatchingPrefixesv, symObjAddr: 0x254, symBinAddr: 0x100000D74, symSize: 0x194 }
  - { offsetInCU: 0xA424, offset: 0xA424, size: 0x8, addend: 0x0, symName: __ZNSt3__16vectorIjNS_9allocatorIjEEEC1B8ue170006ESt16initializer_listIjE, symObjAddr: 0x3E8, symBinAddr: 0x100000F08, symSize: 0x3C }
  - { offsetInCU: 0xA45F, offset: 0xA45F, size: 0x8, addend: 0x0, symName: __ZNSt3__113basic_ostreamIcNS_11char_traitsIcEEElsB8ue170006EPFRS3_S4_E, symObjAddr: 0x46C, symBinAddr: 0x100000F8C, symSize: 0x2C }
  - { offsetInCU: 0xA493, offset: 0xA493, size: 0x8, addend: 0x0, symName: __ZNSt3__16vectorIjNS_9allocatorIjEEED1B8ue170006Ev, symObjAddr: 0x4F0, symBinAddr: 0x100001010, symSize: 0x2C }
  - { offsetInCU: 0xA4BD, offset: 0xA4BD, size: 0x8, addend: 0x0, symName: __Z36testLongestPrefixMatchWithFirstEntryv, symObjAddr: 0x51C, symBinAddr: 0x10000103C, symSize: 0x1B8 }
  - { offsetInCU: 0xA504, offset: 0xA504, size: 0x8, addend: 0x0, symName: __ZNSt3__113basic_ostreamIcNS_11char_traitsIcEEElsB8ue170006EPFRNS_8ios_baseES5_E, symObjAddr: 0x6D4, symBinAddr: 0x1000011F4, symSize: 0x40 }
  - { offsetInCU: 0xA538, offset: 0xA538, size: 0x8, addend: 0x0, symName: __Z19testMatchWithSecondv, symObjAddr: 0x744, symBinAddr: 0x100001264, symSize: 0x1C0 }
  - { offsetInCU: 0xA57F, offset: 0xA57F, size: 0x8, addend: 0x0, symName: _main, symObjAddr: 0x904, symBinAddr: 0x100001424, symSize: 0x34 }
  - { offsetInCU: 0xA599, offset: 0xA599, size: 0x8, addend: 0x0, symName: __ZNKSt3__111__wrap_iterIPjE4baseB8ue170006Ev, symObjAddr: 0x980, symBinAddr: 0x1000014A0, symSize: 0x18 }
  - { offsetInCU: 0xA5BF, offset: 0xA5BF, size: 0x8, addend: 0x0, symName: __ZNSt3__18ios_base4setfB8ue170006Ejj, symObjAddr: 0x998, symBinAddr: 0x1000014B8, symSize: 0x5C }
  - { offsetInCU: 0xA614, offset: 0xA614, size: 0x8, addend: 0x0, symName: __ZNSt3__18ios_base6unsetfB8ue170006Ej, symObjAddr: 0x9F4, symBinAddr: 0x100001514, symSize: 0x28 }
  - { offsetInCU: 0xA64B, offset: 0xA64B, size: 0x8, addend: 0x0, symName: __ZNSt3__16vectorIjNS_9allocatorIjEEE11__make_iterB8ue170006EPj, symObjAddr: 0xA1C, symBinAddr: 0x10000153C, symSize: 0x30 }
  - { offsetInCU: 0xA680, offset: 0xA680, size: 0x8, addend: 0x0, symName: __ZNSt3__111__wrap_iterIPjEC1B8ue170006ES1_, symObjAddr: 0xA4C, symBinAddr: 0x10000156C, symSize: 0x34 }
  - { offsetInCU: 0xA6B8, offset: 0xA6B8, size: 0x8, addend: 0x0, symName: __ZNSt3__111__wrap_iterIPjEC2B8ue170006ES1_, symObjAddr: 0xA80, symBinAddr: 0x1000015A0, symSize: 0x20 }
  - { offsetInCU: 0xA6F0, offset: 0xA6F0, size: 0x8, addend: 0x0, symName: __ZNSt3__16vectorIjNS_9allocatorIjEEEC2B8ue170006ESt16initializer_listIjE, symObjAddr: 0xAA0, symBinAddr: 0x1000015C0, symSize: 0x120 }
  - { offsetInCU: 0xA74A, offset: 0xA74A, size: 0x8, addend: 0x0, symName: __ZNSt3__117__compressed_pairIPjNS_9allocatorIjEEEC1B8ue170006IDnNS_18__default_init_tagEEEOT_OT0_, symObjAddr: 0xBC0, symBinAddr: 0x1000016E0, symSize: 0x3C }
  - { offsetInCU: 0xA7A2, offset: 0xA7A2, size: 0x8, addend: 0x0, symName: __ZNSt3__16vectorIjNS_9allocatorIjEEE16__destroy_vectorC1B8ue170006ERS3_, symObjAddr: 0xC3C, symBinAddr: 0x10000175C, symSize: 0x34 }
  - { offsetInCU: 0xA7DB, offset: 0xA7DB, size: 0x8, addend: 0x0, symName: __ZNKSt16initializer_listIjE4sizeB8ue170006Ev, symObjAddr: 0xC70, symBinAddr: 0x100001790, symSize: 0x18 }
  - { offsetInCU: 0xA801, offset: 0xA801, size: 0x8, addend: 0x0, symName: __ZNSt3__16vectorIjNS_9allocatorIjEEE11__vallocateB8ue170006Em, symObjAddr: 0xC88, symBinAddr: 0x1000017A8, symSize: 0xAC }
  - { offsetInCU: 0xA845, offset: 0xA845, size: 0x8, addend: 0x0, symName: __ZNSt3__16vectorIjNS_9allocatorIjEEE18__construct_at_endIPKjS6_EEvT_T0_m, symObjAddr: 0xD34, symBinAddr: 0x100001854, symSize: 0x8C }
  - { offsetInCU: 0xA8BB, offset: 0xA8BB, size: 0x8, addend: 0x0, symName: __ZNKSt16initializer_listIjE5beginB8ue170006Ev, symObjAddr: 0xDC0, symBinAddr: 0x1000018E0, symSize: 0x18 }
  - { offsetInCU: 0xA8E1, offset: 0xA8E1, size: 0x8, addend: 0x0, symName: __ZNKSt16initializer_listIjE3endB8ue170006Ev, symObjAddr: 0xDD8, symBinAddr: 0x1000018F8, symSize: 0x20 }
  - { offsetInCU: 0xA907, offset: 0xA907, size: 0x8, addend: 0x0, symName: __ZNSt3__128__exception_guard_exceptionsINS_6vectorIjNS_9allocatorIjEEE16__destroy_vectorEE10__completeB8ue170006Ev, symObjAddr: 0xDF8, symBinAddr: 0x100001918, symSize: 0x1C }
  - { offsetInCU: 0xA92D, offset: 0xA92D, size: 0x8, addend: 0x0, symName: __ZNSt3__128__exception_guard_exceptionsINS_6vectorIjNS_9allocatorIjEEE16__destroy_vectorEED1B8ue170006Ev, symObjAddr: 0xE14, symBinAddr: 0x100001934, symSize: 0x2C }
  - { offsetInCU: 0xA957, offset: 0xA957, size: 0x8, addend: 0x0, symName: __ZNSt3__117__compressed_pairIPjNS_9allocatorIjEEEC2B8ue170006IDnNS_18__default_init_tagEEEOT_OT0_, symObjAddr: 0xE40, symBinAddr: 0x100001960, symSize: 0x40 }
  - { offsetInCU: 0xA9AF, offset: 0xA9AF, size: 0x8, addend: 0x0, symName: __ZNSt3__122__compressed_pair_elemIPjLi0ELb0EEC2B8ue170006IDnvEEOT_, symObjAddr: 0xE80, symBinAddr: 0x1000019A0, symSize: 0x1C }
  - { offsetInCU: 0xA9F1, offset: 0xA9F1, size: 0x8, addend: 0x0, symName: __ZNSt3__122__compressed_pair_elemINS_9allocatorIjEELi1ELb1EEC2B8ue170006ENS_18__default_init_tagE, symObjAddr: 0xE9C, symBinAddr: 0x1000019BC, symSize: 0x2C }
  - { offsetInCU: 0xAA26, offset: 0xAA26, size: 0x8, addend: 0x0, symName: __ZNSt3__19allocatorIjEC2B8ue170006Ev, symObjAddr: 0xEC8, symBinAddr: 0x1000019E8, symSize: 0x2C }
  - { offsetInCU: 0xAA50, offset: 0xAA50, size: 0x8, addend: 0x0, symName: __ZNSt3__116__non_trivial_ifILb1ENS_9allocatorIjEEEC2B8ue170006Ev, symObjAddr: 0xEF4, symBinAddr: 0x100001A14, symSize: 0x14 }
  - { offsetInCU: 0xAA7A, offset: 0xAA7A, size: 0x8, addend: 0x0, symName: __ZNSt3__128__exception_guard_exceptionsINS_6vectorIjNS_9allocatorIjEEE16__destroy_vectorEEC1B8ue170006ES5_, symObjAddr: 0xF08, symBinAddr: 0x100001A28, symSize: 0x34 }
  - { offsetInCU: 0xAAB2, offset: 0xAAB2, size: 0x8, addend: 0x0, symName: __ZNSt3__128__exception_guard_exceptionsINS_6vectorIjNS_9allocatorIjEEE16__destroy_vectorEEC2B8ue170006ES5_, symObjAddr: 0xF3C, symBinAddr: 0x100001A5C, symSize: 0x24 }
  - { offsetInCU: 0xAAEA, offset: 0xAAEA, size: 0x8, addend: 0x0, symName: __ZNSt3__16vectorIjNS_9allocatorIjEEE16__destroy_vectorC2B8ue170006ERS3_, symObjAddr: 0xF60, symBinAddr: 0x100001A80, symSize: 0x20 }
  - { offsetInCU: 0xAB23, offset: 0xAB23, size: 0x8, addend: 0x0, symName: __ZNKSt3__16vectorIjNS_9allocatorIjEEE8max_sizeEv, symObjAddr: 0xF80, symBinAddr: 0x100001AA0, symSize: 0x60 }
  - { offsetInCU: 0xAB4B, offset: 0xAB4B, size: 0x8, addend: 0x0, symName: __ZNKSt3__16vectorIjNS_9allocatorIjEEE20__throw_length_errorB8ue170006Ev, symObjAddr: 0xFE0, symBinAddr: 0x100001B00, symSize: 0x1C }
  - { offsetInCU: 0xAB71, offset: 0xAB71, size: 0x8, addend: 0x0, symName: __ZNSt3__16vectorIjNS_9allocatorIjEEE7__allocB8ue170006Ev, symObjAddr: 0x103C, symBinAddr: 0x100001B5C, symSize: 0x28 }
  - { offsetInCU: 0xAB97, offset: 0xAB97, size: 0x8, addend: 0x0, symName: __ZNSt3__16vectorIjNS_9allocatorIjEEE9__end_capB8ue170006Ev, symObjAddr: 0x1064, symBinAddr: 0x100001B84, symSize: 0x28 }
  - { offsetInCU: 0xABBD, offset: 0xABBD, size: 0x8, addend: 0x0, symName: __ZNKSt3__16vectorIjNS_9allocatorIjEEE14__annotate_newB8ue170006Em, symObjAddr: 0x108C, symBinAddr: 0x100001BAC, symSize: 0xAC }
  - { offsetInCU: 0xABFC, offset: 0xABFC, size: 0x8, addend: 0x0, symName: __ZNSt3__116allocator_traitsINS_9allocatorIjEEE8max_sizeB8ue170006IS2_vEEmRKS2_, symObjAddr: 0x1164, symBinAddr: 0x100001C84, symSize: 0x24 }
  - { offsetInCU: 0xAC2A, offset: 0xAC2A, size: 0x8, addend: 0x0, symName: __ZNKSt3__16vectorIjNS_9allocatorIjEEE7__allocB8ue170006Ev, symObjAddr: 0x1188, symBinAddr: 0x100001CA8, symSize: 0x28 }
  - { offsetInCU: 0xAC50, offset: 0xAC50, size: 0x8, addend: 0x0, symName: __ZNSt3__114numeric_limitsIlE3maxB8ue170006Ev, symObjAddr: 0x11B0, symBinAddr: 0x100001CD0, symSize: 0x14 }
  - { offsetInCU: 0xAC78, offset: 0xAC78, size: 0x8, addend: 0x0, symName: __ZNKSt3__16__lessIvvEclB8ue170006ImmEEbRKT_RKT0_, symObjAddr: 0x1224, symBinAddr: 0x100001D44, symSize: 0x34 }
  - { offsetInCU: 0xACCC, offset: 0xACCC, size: 0x8, addend: 0x0, symName: __ZNKSt3__19allocatorIjE8max_sizeB8ue170006Ev, symObjAddr: 0x1258, symBinAddr: 0x100001D78, symSize: 0x14 }
  - { offsetInCU: 0xACF2, offset: 0xACF2, size: 0x8, addend: 0x0, symName: __ZNKSt3__117__compressed_pairIPjNS_9allocatorIjEEE6secondB8ue170006Ev, symObjAddr: 0x126C, symBinAddr: 0x100001D8C, symSize: 0x24 }
  - { offsetInCU: 0xAD18, offset: 0xAD18, size: 0x8, addend: 0x0, symName: __ZNKSt3__122__compressed_pair_elemINS_9allocatorIjEELi1ELb1EE5__getB8ue170006Ev, symObjAddr: 0x1290, symBinAddr: 0x100001DB0, symSize: 0x14 }
  - { offsetInCU: 0xAD3E, offset: 0xAD3E, size: 0x8, addend: 0x0, symName: __ZNSt3__123__libcpp_numeric_limitsIlLb1EE3maxB8ue170006Ev, symObjAddr: 0x12A4, symBinAddr: 0x100001DC4, symSize: 0x8 }
  - { offsetInCU: 0xAD52, offset: 0xAD52, size: 0x8, addend: 0x0, symName: __ZNSt12length_errorC1B8ue170006EPKc, symObjAddr: 0x1310, symBinAddr: 0x100001E30, symSize: 0x34 }
  - { offsetInCU: 0xAD8A, offset: 0xAD8A, size: 0x8, addend: 0x0, symName: __ZNSt12length_errorC2B8ue170006EPKc, symObjAddr: 0x1344, symBinAddr: 0x100001E64, symSize: 0x4C }
  - { offsetInCU: 0xADC2, offset: 0xADC2, size: 0x8, addend: 0x0, symName: __ZNSt3__19allocatorIjE8allocateB8ue170006Em, symObjAddr: 0x1390, symBinAddr: 0x100001EB0, symSize: 0x58 }
  - { offsetInCU: 0xADF6, offset: 0xADF6, size: 0x8, addend: 0x0, symName: __ZNSt3__117__compressed_pairIPjNS_9allocatorIjEEE6secondB8ue170006Ev, symObjAddr: 0x14EC, symBinAddr: 0x10000200C, symSize: 0x24 }
  - { offsetInCU: 0xAE1C, offset: 0xAE1C, size: 0x8, addend: 0x0, symName: __ZNSt3__122__compressed_pair_elemINS_9allocatorIjEELi1ELb1EE5__getB8ue170006Ev, symObjAddr: 0x1510, symBinAddr: 0x100002030, symSize: 0x14 }
  - { offsetInCU: 0xAE42, offset: 0xAE42, size: 0x8, addend: 0x0, symName: __ZNSt3__117__compressed_pairIPjNS_9allocatorIjEEE5firstB8ue170006Ev, symObjAddr: 0x1524, symBinAddr: 0x100002044, symSize: 0x24 }
  - { offsetInCU: 0xAE68, offset: 0xAE68, size: 0x8, addend: 0x0, symName: __ZNSt3__122__compressed_pair_elemIPjLi0ELb0EE5__getB8ue170006Ev, symObjAddr: 0x1548, symBinAddr: 0x100002068, symSize: 0x14 }
  - { offsetInCU: 0xAE8E, offset: 0xAE8E, size: 0x8, addend: 0x0, symName: __ZNKSt3__16vectorIjNS_9allocatorIjEEE31__annotate_contiguous_containerB8ue170006EPKvS5_S5_S5_, symObjAddr: 0x155C, symBinAddr: 0x10000207C, symSize: 0x20 }
  - { offsetInCU: 0xAEE0, offset: 0xAEE0, size: 0x8, addend: 0x0, symName: __ZNKSt3__16vectorIjNS_9allocatorIjEEE4dataB8ue170006Ev, symObjAddr: 0x157C, symBinAddr: 0x10000209C, symSize: 0x28 }
  - { offsetInCU: 0xAF06, offset: 0xAF06, size: 0x8, addend: 0x0, symName: __ZNKSt3__16vectorIjNS_9allocatorIjEEE8capacityB8ue170006Ev, symObjAddr: 0x15A4, symBinAddr: 0x1000020C4, symSize: 0x40 }
  - { offsetInCU: 0xAF2C, offset: 0xAF2C, size: 0x8, addend: 0x0, symName: __ZNKSt3__16vectorIjNS_9allocatorIjEEE9__end_capB8ue170006Ev, symObjAddr: 0x15F8, symBinAddr: 0x100002118, symSize: 0x28 }
  - { offsetInCU: 0xAF52, offset: 0xAF52, size: 0x8, addend: 0x0, symName: __ZNKSt3__117__compressed_pairIPjNS_9allocatorIjEEE5firstB8ue170006Ev, symObjAddr: 0x1620, symBinAddr: 0x100002140, symSize: 0x24 }
  - { offsetInCU: 0xAF78, offset: 0xAF78, size: 0x8, addend: 0x0, symName: __ZNKSt3__122__compressed_pair_elemIPjLi0ELb0EE5__getB8ue170006Ev, symObjAddr: 0x1644, symBinAddr: 0x100002164, symSize: 0x14 }
  - { offsetInCU: 0xAFB7, offset: 0xAFB7, size: 0x8, addend: 0x0, symName: __ZNSt3__16vectorIjNS_9allocatorIjEEE21_ConstructTransactionC1B8ue170006ERS3_m, symObjAddr: 0x1658, symBinAddr: 0x100002178, symSize: 0x3C }
  - { offsetInCU: 0xAFFF, offset: 0xAFFF, size: 0x8, addend: 0x0, symName: __ZNSt3__16vectorIjNS_9allocatorIjEEE21_ConstructTransactionD1B8ue170006Ev, symObjAddr: 0x1714, symBinAddr: 0x100002234, symSize: 0x2C }
  - { offsetInCU: 0xB029, offset: 0xB029, size: 0x8, addend: 0x0, symName: __ZNSt3__16vectorIjNS_9allocatorIjEEE21_ConstructTransactionC2B8ue170006ERS3_m, symObjAddr: 0x1740, symBinAddr: 0x100002260, symSize: 0x44 }
  - { offsetInCU: 0xB08F, offset: 0xB08F, size: 0x8, addend: 0x0, symName: __ZNSt3__14pairIPKjS2_EC1B8ue170006IS2_S2_LPv0EEEOT_OT0_, symObjAddr: 0x18D8, symBinAddr: 0x1000023F8, symSize: 0x3C }
  - { offsetInCU: 0xB0ED, offset: 0xB0ED, size: 0x8, addend: 0x0, symName: __ZNSt3__14pairIPKjS2_EC2B8ue170006IS2_S2_LPv0EEEOT_OT0_, symObjAddr: 0x1914, symBinAddr: 0x100002434, symSize: 0x34 }
  - { offsetInCU: 0xB14B, offset: 0xB14B, size: 0x8, addend: 0x0, symName: __ZNSt3__118__unwrap_iter_implIPKjLb1EE8__unwrapB8ue170006ES2_, symObjAddr: 0x1948, symBinAddr: 0x100002468, symSize: 0x24 }
  - { offsetInCU: 0xB191, offset: 0xB191, size: 0x8, addend: 0x0, symName: __ZNKSt3__114__copy_trivialclB8ue170006IKjjLi0EEENS_4pairIPT_PT0_EES5_S5_S7_, symObjAddr: 0x1AFC, symBinAddr: 0x10000261C, symSize: 0x48 }
  - { offsetInCU: 0xB203, offset: 0xB203, size: 0x8, addend: 0x0, symName: __ZNSt3__14pairIPKjPjEC1B8ue170006IRS2_S3_LPv0EEEOT_OT0_, symObjAddr: 0x1CC4, symBinAddr: 0x1000027E4, symSize: 0x3C }
  - { offsetInCU: 0xB261, offset: 0xB261, size: 0x8, addend: 0x0, symName: __ZNSt3__14pairIPKjPjEC2B8ue170006IRS2_S3_LPv0EEEOT_OT0_, symObjAddr: 0x1D00, symBinAddr: 0x100002820, symSize: 0x34 }
  - { offsetInCU: 0xB2BF, offset: 0xB2BF, size: 0x8, addend: 0x0, symName: __ZNSt3__14pairIPKjPjEC1B8ue170006IS2_S3_LPv0EEEOT_OT0_, symObjAddr: 0x1D34, symBinAddr: 0x100002854, symSize: 0x3C }
  - { offsetInCU: 0xB31D, offset: 0xB31D, size: 0x8, addend: 0x0, symName: __ZNSt3__14pairIPKjPjEC2B8ue170006IS2_S3_LPv0EEEOT_OT0_, symObjAddr: 0x1D70, symBinAddr: 0x100002890, symSize: 0x34 }
  - { offsetInCU: 0xB37B, offset: 0xB37B, size: 0x8, addend: 0x0, symName: __ZNSt3__118__unwrap_iter_implIPKjLb1EE8__rewrapB8ue170006ES2_S2_, symObjAddr: 0x1DE0, symBinAddr: 0x100002900, symSize: 0x50 }
  - { offsetInCU: 0xB3AC, offset: 0xB3AC, size: 0x8, addend: 0x0, symName: __ZNSt3__118__unwrap_iter_implIPjLb1EE8__unwrapB8ue170006ES1_, symObjAddr: 0x1E30, symBinAddr: 0x100002950, symSize: 0x24 }
  - { offsetInCU: 0xB3CF, offset: 0xB3CF, size: 0x8, addend: 0x0, symName: __ZNSt3__118__unwrap_iter_implIPjLb1EE8__rewrapB8ue170006ES1_S1_, symObjAddr: 0x1E54, symBinAddr: 0x100002974, symSize: 0x50 }
  - { offsetInCU: 0xB400, offset: 0xB400, size: 0x8, addend: 0x0, symName: __ZNSt3__16vectorIjNS_9allocatorIjEEE21_ConstructTransactionD2B8ue170006Ev, symObjAddr: 0x1EA4, symBinAddr: 0x1000029C4, symSize: 0x20 }
  - { offsetInCU: 0xB42A, offset: 0xB42A, size: 0x8, addend: 0x0, symName: __ZNSt3__128__exception_guard_exceptionsINS_6vectorIjNS_9allocatorIjEEE16__destroy_vectorEED2B8ue170006Ev, symObjAddr: 0x1EC4, symBinAddr: 0x1000029E4, symSize: 0x50 }
  - { offsetInCU: 0xB454, offset: 0xB454, size: 0x8, addend: 0x0, symName: __ZNSt3__16vectorIjNS_9allocatorIjEEE16__destroy_vectorclB8ue170006Ev, symObjAddr: 0x1F14, symBinAddr: 0x100002A34, symSize: 0x90 }
  - { offsetInCU: 0xB47A, offset: 0xB47A, size: 0x8, addend: 0x0, symName: __ZNSt3__16vectorIjNS_9allocatorIjEEE7__clearB8ue170006Ev, symObjAddr: 0x1FA4, symBinAddr: 0x100002AC4, symSize: 0x28 }
  - { offsetInCU: 0xB4A0, offset: 0xB4A0, size: 0x8, addend: 0x0, symName: __ZNKSt3__16vectorIjNS_9allocatorIjEEE17__annotate_deleteB8ue170006Ev, symObjAddr: 0x1FCC, symBinAddr: 0x100002AEC, symSize: 0xB8 }
  - { offsetInCU: 0xB4C6, offset: 0xB4C6, size: 0x8, addend: 0x0, symName: __ZNSt3__116allocator_traitsINS_9allocatorIjEEE10deallocateB8ue170006ERS2_Pjm, symObjAddr: 0x2084, symBinAddr: 0x100002BA4, symSize: 0x34 }
  - { offsetInCU: 0xB508, offset: 0xB508, size: 0x8, addend: 0x0, symName: __ZNSt3__16vectorIjNS_9allocatorIjEEE22__base_destruct_at_endB8ue170006EPj, symObjAddr: 0x20B8, symBinAddr: 0x100002BD8, symSize: 0x8C }
  - { offsetInCU: 0xB54C, offset: 0xB54C, size: 0x8, addend: 0x0, symName: __ZNSt3__116allocator_traitsINS_9allocatorIjEEE7destroyB8ue170006IjvEEvRS2_PT_, symObjAddr: 0x2144, symBinAddr: 0x100002C64, symSize: 0x2C }
  - { offsetInCU: 0xB589, offset: 0xB589, size: 0x8, addend: 0x0, symName: __ZNSt3__19allocatorIjE7destroyB8ue170006EPj, symObjAddr: 0x2170, symBinAddr: 0x100002C90, symSize: 0x14 }
  - { offsetInCU: 0xB5BD, offset: 0xB5BD, size: 0x8, addend: 0x0, symName: __ZNKSt3__16vectorIjNS_9allocatorIjEEE4sizeB8ue170006Ev, symObjAddr: 0x2184, symBinAddr: 0x100002CA4, symSize: 0x28 }
  - { offsetInCU: 0xB5E3, offset: 0xB5E3, size: 0x8, addend: 0x0, symName: __ZNSt3__19allocatorIjE10deallocateB8ue170006EPjm, symObjAddr: 0x21AC, symBinAddr: 0x100002CCC, symSize: 0x40 }
  - { offsetInCU: 0xB625, offset: 0xB625, size: 0x8, addend: 0x0, symName: __ZNSt3__16vectorIjNS_9allocatorIjEEED2B8ue170006Ev, symObjAddr: 0x22F4, symBinAddr: 0x100002E14, symSize: 0x40 }
  - { offsetInCU: 0xB64F, offset: 0xB64F, size: 0x8, addend: 0x0, symName: __ZNSt3__111char_traitsIcE6lengthB8ue170006EPKc, symObjAddr: 0x2520, symBinAddr: 0x100003040, symSize: 0x34 }
  - { offsetInCU: 0xB690, offset: 0xB690, size: 0x8, addend: 0x0, symName: __ZNKSt3__113basic_ostreamIcNS_11char_traitsIcEEE6sentrycvbB8ue170006Ev, symObjAddr: 0x2554, symBinAddr: 0x100003074, symSize: 0x1C }
  - { offsetInCU: 0xB6B6, offset: 0xB6B6, size: 0x8, addend: 0x0, symName: __ZNSt3__119ostreambuf_iteratorIcNS_11char_traitsIcEEEC1B8ue170006ERNS_13basic_ostreamIcS2_EE, symObjAddr: 0x27B0, symBinAddr: 0x1000032D0, symSize: 0x34 }
  - { offsetInCU: 0xB6EE, offset: 0xB6EE, size: 0x8, addend: 0x0, symName: __ZNKSt3__18ios_base5flagsB8ue170006Ev, symObjAddr: 0x27E4, symBinAddr: 0x100003304, symSize: 0x18 }
  - { offsetInCU: 0xB716, offset: 0xB716, size: 0x8, addend: 0x0, symName: __ZNKSt3__19basic_iosIcNS_11char_traitsIcEEE4fillB8ue170006Ev, symObjAddr: 0x27FC, symBinAddr: 0x10000331C, symSize: 0x64 }
  - { offsetInCU: 0xB73E, offset: 0xB73E, size: 0x8, addend: 0x0, symName: __ZNKSt3__119ostreambuf_iteratorIcNS_11char_traitsIcEEE6failedB8ue170006Ev, symObjAddr: 0x2860, symBinAddr: 0x100003380, symSize: 0x24 }
  - { offsetInCU: 0xB764, offset: 0xB764, size: 0x8, addend: 0x0, symName: __ZNSt3__19basic_iosIcNS_11char_traitsIcEEE8setstateB8ue170006Ej, symObjAddr: 0x2884, symBinAddr: 0x1000033A4, symSize: 0x2C }
  - { offsetInCU: 0xB799, offset: 0xB799, size: 0x8, addend: 0x0, symName: __ZNKSt3__18ios_base5widthB8ue170006Ev, symObjAddr: 0x28B0, symBinAddr: 0x1000033D0, symSize: 0x18 }
  - { offsetInCU: 0xB7C1, offset: 0xB7C1, size: 0x8, addend: 0x0, symName: __ZNSt3__115basic_streambufIcNS_11char_traitsIcEEE5sputnB8ue170006EPKcl, symObjAddr: 0x28C8, symBinAddr: 0x1000033E8, symSize: 0x3C }
  - { offsetInCU: 0xB803, offset: 0xB803, size: 0x8, addend: 0x0, symName: __ZNSt3__112basic_stringIcNS_11char_traitsIcEENS_9allocatorIcEEEC1B8ue170006Emc, symObjAddr: 0x2904, symBinAddr: 0x100003424, symSize: 0x3C }
  - { offsetInCU: 0xB84B, offset: 0xB84B, size: 0x8, addend: 0x0, symName: __ZNSt3__112basic_stringIcNS_11char_traitsIcEENS_9allocatorIcEEE4dataB8ue170006Ev, symObjAddr: 0x2940, symBinAddr: 0x100003460, symSize: 0x28 }
  - { offsetInCU: 0xB871, offset: 0xB871, size: 0x8, addend: 0x0, symName: __ZNSt3__18ios_base5widthB8ue170006El, symObjAddr: 0x2968, symBinAddr: 0x100003488, symSize: 0x2C }
  - { offsetInCU: 0xB8B7, offset: 0xB8B7, size: 0x8, addend: 0x0, symName: __ZNSt3__112basic_stringIcNS_11char_traitsIcEENS_9allocatorIcEEEC2B8ue170006Emc, symObjAddr: 0x2994, symBinAddr: 0x1000034B4, symSize: 0x4C }
  - { offsetInCU: 0xB8FF, offset: 0xB8FF, size: 0x8, addend: 0x0, symName: __ZNSt3__117__compressed_pairINS_12basic_stringIcNS_11char_traitsIcEENS_9allocatorIcEEE5__repES5_EC1B8ue170006INS_18__default_init_tagESA_EEOT_OT0_, symObjAddr: 0x29E0, symBinAddr: 0x100003500, symSize: 0x3C }
  - { offsetInCU: 0xB957, offset: 0xB957, size: 0x8, addend: 0x0, symName: __ZNSt3__117__compressed_pairINS_12basic_stringIcNS_11char_traitsIcEENS_9allocatorIcEEE5__repES5_EC2B8ue170006INS_18__default_init_tagESA_EEOT_OT0_, symObjAddr: 0x2A1C, symBinAddr: 0x10000353C, symSize: 0x3C }
  - { offsetInCU: 0xB9AF, offset: 0xB9AF, size: 0x8, addend: 0x0, symName: __ZNSt3__122__compressed_pair_elemINS_12basic_stringIcNS_11char_traitsIcEENS_9allocatorIcEEE5__repELi0ELb0EEC2B8ue170006ENS_18__default_init_tagE, symObjAddr: 0x2A58, symBinAddr: 0x100003578, symSize: 0x14 }
  - { offsetInCU: 0xB9E4, offset: 0xB9E4, size: 0x8, addend: 0x0, symName: __ZNSt3__122__compressed_pair_elemINS_9allocatorIcEELi1ELb1EEC2B8ue170006ENS_18__default_init_tagE, symObjAddr: 0x2A6C, symBinAddr: 0x10000358C, symSize: 0x2C }
  - { offsetInCU: 0xBA19, offset: 0xBA19, size: 0x8, addend: 0x0, symName: __ZNSt3__19allocatorIcEC2B8ue170006Ev, symObjAddr: 0x2A98, symBinAddr: 0x1000035B8, symSize: 0x2C }
  - { offsetInCU: 0xBA43, offset: 0xBA43, size: 0x8, addend: 0x0, symName: __ZNSt3__116__non_trivial_ifILb1ENS_9allocatorIcEEEC2B8ue170006Ev, symObjAddr: 0x2AC4, symBinAddr: 0x1000035E4, symSize: 0x14 }
  - { offsetInCU: 0xBA6D, offset: 0xBA6D, size: 0x8, addend: 0x0, symName: __ZNSt3__112basic_stringIcNS_11char_traitsIcEENS_9allocatorIcEEE13__get_pointerB8ue170006Ev, symObjAddr: 0x2AEC, symBinAddr: 0x10000360C, symSize: 0x54 }
  - { offsetInCU: 0xBA93, offset: 0xBA93, size: 0x8, addend: 0x0, symName: __ZNKSt3__112basic_stringIcNS_11char_traitsIcEENS_9allocatorIcEEE9__is_longB8ue170006Ev, symObjAddr: 0x2B40, symBinAddr: 0x100003660, symSize: 0x38 }
  - { offsetInCU: 0xBAB9, offset: 0xBAB9, size: 0x8, addend: 0x0, symName: __ZNSt3__112basic_stringIcNS_11char_traitsIcEENS_9allocatorIcEEE18__get_long_pointerB8ue170006Ev, symObjAddr: 0x2B78, symBinAddr: 0x100003698, symSize: 0x28 }
  - { offsetInCU: 0xBADF, offset: 0xBADF, size: 0x8, addend: 0x0, symName: __ZNSt3__112basic_stringIcNS_11char_traitsIcEENS_9allocatorIcEEE19__get_short_pointerB8ue170006Ev, symObjAddr: 0x2BA0, symBinAddr: 0x1000036C0, symSize: 0x28 }
  - { offsetInCU: 0xBB05, offset: 0xBB05, size: 0x8, addend: 0x0, symName: __ZNKSt3__117__compressed_pairINS_12basic_stringIcNS_11char_traitsIcEENS_9allocatorIcEEE5__repES5_E5firstB8ue170006Ev, symObjAddr: 0x2BC8, symBinAddr: 0x1000036E8, symSize: 0x24 }
  - { offsetInCU: 0xBB2B, offset: 0xBB2B, size: 0x8, addend: 0x0, symName: __ZNKSt3__122__compressed_pair_elemINS_12basic_stringIcNS_11char_traitsIcEENS_9allocatorIcEEE5__repELi0ELb0EE5__getB8ue170006Ev, symObjAddr: 0x2BEC, symBinAddr: 0x10000370C, symSize: 0x14 }
  - { offsetInCU: 0xBB51, offset: 0xBB51, size: 0x8, addend: 0x0, symName: __ZNSt3__117__compressed_pairINS_12basic_stringIcNS_11char_traitsIcEENS_9allocatorIcEEE5__repES5_E5firstB8ue170006Ev, symObjAddr: 0x2C00, symBinAddr: 0x100003720, symSize: 0x24 }
  - { offsetInCU: 0xBB77, offset: 0xBB77, size: 0x8, addend: 0x0, symName: __ZNSt3__122__compressed_pair_elemINS_12basic_stringIcNS_11char_traitsIcEENS_9allocatorIcEEE5__repELi0ELb0EE5__getB8ue170006Ev, symObjAddr: 0x2C24, symBinAddr: 0x100003744, symSize: 0x14 }
  - { offsetInCU: 0xBB9D, offset: 0xBB9D, size: 0x8, addend: 0x0, symName: __ZNSt3__114pointer_traitsIPcE10pointer_toB8ue170006ERc, symObjAddr: 0x2C38, symBinAddr: 0x100003758, symSize: 0x14 }
  - { offsetInCU: 0xBBC0, offset: 0xBBC0, size: 0x8, addend: 0x0, symName: __ZNSt3__119ostreambuf_iteratorIcNS_11char_traitsIcEEEC2B8ue170006ERNS_13basic_ostreamIcS2_EE, symObjAddr: 0x2C4C, symBinAddr: 0x10000376C, symSize: 0x54 }
  - { offsetInCU: 0xBBF8, offset: 0xBBF8, size: 0x8, addend: 0x0, symName: __ZNKSt3__19basic_iosIcNS_11char_traitsIcEEE5rdbufB8ue170006Ev, symObjAddr: 0x2CA0, symBinAddr: 0x1000037C0, symSize: 0x24 }
  - { offsetInCU: 0xBC20, offset: 0xBC20, size: 0x8, addend: 0x0, symName: __ZNKSt3__18ios_base5rdbufB8ue170006Ev, symObjAddr: 0x2CC4, symBinAddr: 0x1000037E4, symSize: 0x18 }
  - { offsetInCU: 0xBC46, offset: 0xBC46, size: 0x8, addend: 0x0, symName: __ZNSt3__111char_traitsIcE11eq_int_typeB8ue170006Eii, symObjAddr: 0x2CDC, symBinAddr: 0x1000037FC, symSize: 0x28 }
  - { offsetInCU: 0xBC79, offset: 0xBC79, size: 0x8, addend: 0x0, symName: __ZNSt3__111char_traitsIcE3eofB8ue170006Ev, symObjAddr: 0x2D04, symBinAddr: 0x100003824, symSize: 0x8 }
  - { offsetInCU: 0xBC8D, offset: 0xBC8D, size: 0x8, addend: 0x0, symName: __ZNKSt3__19basic_iosIcNS_11char_traitsIcEEE5widenB8ue170006Ec, symObjAddr: 0x2D0C, symBinAddr: 0x10000382C, symSize: 0x84 }
  - { offsetInCU: 0xBCF6, offset: 0xBCF6, size: 0x8, addend: 0x0, symName: __ZNKSt3__15ctypeIcE5widenB8ue170006Ec, symObjAddr: 0x2DBC, symBinAddr: 0x1000038DC, symSize: 0x38 }
  - { offsetInCU: 0xBD2B, offset: 0xBD2B, size: 0x8, addend: 0x0, symName: __ZNSt3__18ios_base8setstateB8ue170006Ej, symObjAddr: 0x2DF4, symBinAddr: 0x100003914, symSize: 0x34 }
...
